target datalayout = "e-m:e-p270:32:32-p271:32:32-p272:64:64-i64:64-i128:128-f80:128-n8:16:32:64-S128"
target triple = "x86_64-pc-linux-gnu"

%class.LBMLBTRUTransportDialog = type { %class.QDialog, ptr, ptr, ptr, ptr, ptr, ptr, ptr, ptr, ptr }
%class.QDialog = type { %class.QWidget }
%class.QWidget = type { %class.QObject, %class.QPaintDevice.base, ptr }
%class.QObject = type { ptr, %class.QScopedPointer }
%class.QScopedPointer = type { ptr }
%class.QPaintDevice.base = type <{ ptr, i16 }>
%class.QPoint = type { i32, i32 }

; Function Attrs: mustprogress null_pointer_is_valid sspstrong uwtable
define void @_ZN23LBMLBTRUTransportDialog35custom_source_context_menuRequestedERK6QPoint(ptr noundef align 8 dereferenceable_or_null(112) %0, ptr noundef align 4 dereferenceable(8) %1) #0 align 2 {
  %3 = alloca ptr, align 8
  %4 = alloca ptr, align 8
  %5 = alloca %class.QPoint, align 4
  store ptr %0, ptr %3, align 8
  store ptr %1, ptr %4, align 8
  %6 = load ptr, ptr %3, align 8
  %7 = getelementptr inbounds nuw %class.LBMLBTRUTransportDialog, ptr %6, i32 0, i32 6
  %8 = load ptr, ptr %7, align 8
  call void @llvm.lifetime.start.p0(i64 8, ptr %5) #22
  %9 = getelementptr inbounds nuw %class.LBMLBTRUTransportDialog, ptr %6, i32 0, i32 7
  %10 = load ptr, ptr %9, align 8
  %11 = load ptr, ptr %4, align 8
  %12 = call i64 @_ZNK7QWidget11mapToGlobalERK6QPoint(ptr noundef align 8 dereferenceable_or_null(40) %10, ptr noundef align 4 dereferenceable(8) %11)
  store i64 %12, ptr %5, align 4
  call void @_ZN5QMenu5popupERK6QPointP7QAction(ptr noundef align 8 dereferenceable_or_null(40) %8, ptr noundef align 4 dereferenceable(8) %5, ptr noundef null)
  call void @llvm.lifetime.end.p0(i64 8, ptr %5) #22
  ret void
}